; Function Attrs: inlinehint mustprogress uwtable
define internal fastcc void @_ZN2cvL10applyGammaENS_9softfloatE(ptr dead_on_unwind noalias nonnull writable align 4 %0, ptr noundef nonnull %1) unnamed_addr #10 {
  %3 = alloca %"struct.cv::softdouble", align 8
  %4 = alloca %"struct.cv::softdouble", align 8
  %5 = alloca %"struct.cv::softdouble", align 8
  %6 = alloca %"struct.cv::softdouble", align 8
  %7 = alloca %"struct.cv::softdouble", align 8
  %8 = alloca %"struct.cv::softdouble", align 8
  call void @llvm.lifetime.start.p0(i64 8, ptr nonnull %3) #22
  call void @_ZNK2cv9softfloatcvNS_10softdoubleEEv(ptr dead_on_unwind nonnull writable sret(%"struct.cv::softdouble") align 8 %3, ptr noundef nonnull align 4 dereferenceable(4) %1)
  call void @llvm.lifetime.start.p0(i64 8, ptr nonnull %4) #22
  %9 = call noundef zeroext i1 @_ZNK2cv10softdoubleleERKS0_(ptr noundef nonnull align 8 dereferenceable(8) %3, ptr noundef nonnull align 8 dereferenceable(8) @_ZN2cvL14gammaThresholdE)
  call void @llvm.lifetime.start.p0(i64 8, ptr nonnull %5) #22
  call void @llvm.lifetime.start.p0(i64 8, ptr nonnull %6) #22
  call void @llvm.lifetime.start.p0(i64 8, ptr nonnull %7) #22
  call void @llvm.lifetime.start.p0(i64 8, ptr nonnull %8) #22
  br i1 %9, label %10, label %11

10:                                               ; preds = %2
  call void @_ZNK2cv10softdoubledvERKS0_(ptr dead_on_unwind nonnull writable sret(%"struct.cv::softdouble") align 8 %4, ptr noundef nonnull align 8 dereferenceable(8) %3, ptr noundef nonnull align 8 dereferenceable(8) @_ZN2cvL13gammaLowScaleE)
  br label %12

11:                                               ; preds = %2
  call void @_ZNK2cv10softdoubleplERKS0_(ptr dead_on_unwind nonnull writable sret(%"struct.cv::softdouble") align 8 %6, ptr noundef nonnull align 8 dereferenceable(8) %3, ptr noundef nonnull align 8 dereferenceable(8) @_ZN2cvL11gammaXshiftE)
  store i64 4607182418800017408, ptr %8, align 8, !tbaa !38, !alias.scope !406
  call void @_ZNK2cv10softdoubleplERKS0_(ptr dead_on_unwind nonnull writable sret(%"struct.cv::softdouble") align 8 %7, ptr noundef nonnull align 8 dereferenceable(8) %8, ptr noundef nonnull align 8 dereferenceable(8) @_ZN2cvL11gammaXshiftE)
  call void @_ZNK2cv10softdoubledvERKS0_(ptr dead_on_unwind nonnull writable sret(%"struct.cv::softdouble") align 8 %5, ptr noundef nonnull align 8 dereferenceable(8) %6, ptr noundef nonnull align 8 dereferenceable(8) %7)
  call void @_ZN2cv3powERKNS_10softdoubleES2_(ptr dead_on_unwind nonnull writable sret(%"struct.cv::softdouble") align 8 %4, ptr noundef nonnull align 8 dereferenceable(8) %5, ptr noundef nonnull align 8 dereferenceable(8) @_ZN2cvL10gammaPowerE)
  br label %12

12:                                               ; preds = %11, %10
  call void @_ZNK2cv10softdoublecvNS_9softfloatEEv(ptr dead_on_unwind nonnull writable sret(%"struct.cv::softfloat") align 4 %0, ptr noundef nonnull align 8 dereferenceable(8) %4)
  call void @llvm.lifetime.end.p0(i64 8, ptr nonnull %8) #22
  call void @llvm.lifetime.end.p0(i64 8, ptr nonnull %7) #22
  call void @llvm.lifetime.end.p0(i64 8, ptr nonnull %6) #22
  call void @llvm.lifetime.end.p0(i64 8, ptr nonnull %5) #22
  call void @llvm.lifetime.end.p0(i64 8, ptr nonnull %4) #22
  call void @llvm.lifetime.end.p0(i64 8, ptr nonnull %3) #22
  ret void
}